target datalayout = "e-m:e-p270:32:32-p271:32:32-p272:64:64-i64:64-i128:128-f80:128-n8:16:32:64-S128"
target triple = "x86_64-pc-linux-gnu"

%struct.sdshdr8 = type { i8, i8, i8, [0 x i8] }
%struct.sdshdr16 = type <{ i16, i16, i8, [0 x i8] }>
%struct.sdshdr32 = type <{ i32, i32, i8, [0 x i8] }>
%struct.sdshdr64 = type <{ i64, i64, i8, [0 x i8] }>

@.str.25 = private unnamed_addr constant [7 x i8] c"nopass\00", align 1
@.str.67 = private unnamed_addr constant [10 x i8] c"resetpass\00", align 1
@DefaultUser = dso_local global ptr null, align 8
@.str.206 = private unnamed_addr constant [2 x i8] c">\00", align 1

; Function Attrs: inlinehint nounwind uwtable
define internal i64 @sdslen(ptr noundef %0) #11 {
  %2 = alloca i64, align 8
  %3 = alloca ptr, align 8
  %4 = alloca i8, align 1
  %5 = alloca i32, align 4
  store ptr %0, ptr %3, align 8, !tbaa !5
  call void @llvm.lifetime.start.p0(i64 1, ptr %4) #14
  %6 = load ptr, ptr %3, align 8, !tbaa !5
  %7 = getelementptr inbounds i8, ptr %6, i64 -1
  %8 = load i8, ptr %7, align 1, !tbaa !22
  store i8 %8, ptr %4, align 1, !tbaa !22
  %9 = load i8, ptr %4, align 1, !tbaa !22
  %10 = zext i8 %9 to i32
  %11 = and i32 %10, 7
  switch i32 %11, label %40 [
    i32 0, label %12
    i32 1, label %17
    i32 2, label %23
    i32 3, label %29
    i32 4, label %35
  ]

12:                                               ; preds = %1
  %13 = load i8, ptr %4, align 1, !tbaa !22
  %14 = zext i8 %13 to i32
  %15 = ashr i32 %14, 3
  %16 = sext i32 %15 to i64
  store i64 %16, ptr %2, align 8
  store i32 1, ptr %5, align 4
  br label %41

17:                                               ; preds = %1
  %18 = load ptr, ptr %3, align 8, !tbaa !5
  %19 = getelementptr inbounds i8, ptr %18, i64 -3
  %20 = getelementptr inbounds nuw %struct.sdshdr8, ptr %19, i32 0, i32 0
  %21 = load i8, ptr %20, align 1, !tbaa !22
  %22 = zext i8 %21 to i64
  store i64 %22, ptr %2, align 8
  store i32 1, ptr %5, align 4
  br label %41

23:                                               ; preds = %1
  %24 = load ptr, ptr %3, align 8, !tbaa !5
  %25 = getelementptr inbounds i8, ptr %24, i64 -5
  %26 = getelementptr inbounds nuw %struct.sdshdr16, ptr %25, i32 0, i32 0
  %27 = load i16, ptr %26, align 1, !tbaa !28
  %28 = zext i16 %27 to i64
  store i64 %28, ptr %2, align 8
  store i32 1, ptr %5, align 4
  br label %41

29:                                               ; preds = %1
  %30 = load ptr, ptr %3, align 8, !tbaa !5
  %31 = getelementptr inbounds i8, ptr %30, i64 -9
  %32 = getelementptr inbounds nuw %struct.sdshdr32, ptr %31, i32 0, i32 0
  %33 = load i32, ptr %32, align 1, !tbaa !17
  %34 = zext i32 %33 to i64
  store i64 %34, ptr %2, align 8
  store i32 1, ptr %5, align 4
  br label %41

35:                                               ; preds = %1
  %36 = load ptr, ptr %3, align 8, !tbaa !5
  %37 = getelementptr inbounds i8, ptr %36, i64 -17
  %38 = getelementptr inbounds nuw %struct.sdshdr64, ptr %37, i32 0, i32 0
  %39 = load i64, ptr %38, align 1, !tbaa !10
  store i64 %39, ptr %2, align 8
  store i32 1, ptr %5, align 4
  br label %41

40:                                               ; preds = %1
  store i64 0, ptr %2, align 8
  store i32 1, ptr %5, align 4
  br label %41

41:                                               ; preds = %40, %35, %29, %23, %17, %12
  call void @llvm.lifetime.end.p0(i64 1, ptr %4) #14
  %42 = load i64, ptr %2, align 8
  ret i64 %42
}

; Function Attrs: nounwind uwtable
define dso_local void @ACLUpdateDefaultUserPassword(ptr noundef %0) #0 {
  %2 = alloca ptr, align 8
  %3 = alloca ptr, align 8
  store ptr %0, ptr %2, align 8, !tbaa !5
  %4 = load ptr, ptr @DefaultUser, align 8, !tbaa !32
  %5 = call i32 @ACLSetUser(ptr noundef %4, ptr noundef @.str.67, i64 noundef -1)
  %6 = load ptr, ptr %2, align 8, !tbaa !5
  %7 = icmp ne ptr %6, null
  br i1 %7, label %8, label %20

8:                                                ; preds = %1
  call void @llvm.lifetime.start.p0(i64 8, ptr %3) #14
  %9 = call ptr @sdsnew(ptr noundef @.str.206)
  %10 = load ptr, ptr %2, align 8, !tbaa !5
  %11 = load ptr, ptr %2, align 8, !tbaa !5
  %12 = call i64 @sdslen(ptr noundef %11)
  %13 = call ptr @sdscatlen(ptr noundef %9, ptr noundef %10, i64 noundef %12)
  store ptr %13, ptr %3, align 8, !tbaa !5
  %14 = load ptr, ptr @DefaultUser, align 8, !tbaa !32
  %15 = load ptr, ptr %3, align 8, !tbaa !5
  %16 = load ptr, ptr %3, align 8, !tbaa !5
  %17 = call i64 @sdslen(ptr noundef %16)
  %18 = call i32 @ACLSetUser(ptr noundef %14, ptr noundef %15, i64 noundef %17)
  %19 = load ptr, ptr %3, align 8, !tbaa !5
  call void @sdsfree(ptr noundef %19)
  call void @llvm.lifetime.end.p0(i64 8, ptr %3) #14
  br label %23

20:                                               ; preds = %1
  %21 = load ptr, ptr @DefaultUser, align 8, !tbaa !32
  %22 = call i32 @ACLSetUser(ptr noundef %21, ptr noundef @.str.25, i64 noundef -1)
  br label %23

23:                                               ; preds = %20, %8
  ret void
}