; Function Attrs: nounwind uwtable
define dso_local void @ACLUpdateDefaultUserPassword(ptr noundef %0) local_unnamed_addr #0 {
  %2 = load ptr, ptr @DefaultUser, align 8, !tbaa !143
  %3 = tail call i32 @ACLSetUser(ptr noundef %2, ptr noundef nonnull @.str.67, i64 noundef -1)
  %.not = icmp eq ptr %0, null
  br i1 %.not, label %53, label %4

4:                                                ; preds = %1
  %5 = tail call ptr @sdsnew(ptr noundef nonnull @.str.206) #25
  %6 = getelementptr inbounds i8, ptr %0, i64 -1
  %7 = load i8, ptr %6, align 1, !tbaa !19
  %8 = zext i8 %7 to i32
  %9 = and i32 %8, 7
  switch i32 %9, label %sdslen.exit [
    i32 0, label %10
    i32 1, label %13
    i32 2, label %17
    i32 3, label %21
    i32 4, label %25
  ]

10:                                               ; preds = %4
  %11 = lshr i32 %8, 3
  %12 = zext nneg i32 %11 to i64
  br label %sdslen.exit

13:                                               ; preds = %4
  %14 = getelementptr inbounds i8, ptr %0, i64 -3
  %15 = load i8, ptr %14, align 1, !tbaa !19
  %16 = zext i8 %15 to i64
  br label %sdslen.exit

17:                                               ; preds = %4
  %18 = getelementptr inbounds i8, ptr %0, i64 -5
  %19 = load i16, ptr %18, align 1, !tbaa !26
  %20 = zext i16 %19 to i64
  br label %sdslen.exit

21:                                               ; preds = %4
  %22 = getelementptr inbounds i8, ptr %0, i64 -9
  %23 = load i32, ptr %22, align 1, !tbaa !102
  %24 = zext i32 %23 to i64
  br label %sdslen.exit

25:                                               ; preds = %4
  %26 = getelementptr inbounds i8, ptr %0, i64 -17
  %27 = load i64, ptr %26, align 1, !tbaa !5
  br label %sdslen.exit

sdslen.exit:                                      ; preds = %4, %10, %13, %17, %21, %25
  %.0.i = phi i64 [ %27, %25 ], [ %24, %21 ], [ %20, %17 ], [ %16, %13 ], [ %12, %10 ], [ 0, %4 ]
  %28 = tail call ptr @sdscatlen(ptr noundef %5, ptr noundef nonnull %0, i64 noundef %.0.i) #25
  %29 = load ptr, ptr @DefaultUser, align 8, !tbaa !143
  %30 = getelementptr inbounds i8, ptr %28, i64 -1
  %31 = load i8, ptr %30, align 1, !tbaa !19
  %32 = zext i8 %31 to i32
  %33 = and i32 %32, 7
  switch i32 %33, label %sdslen.exit7 [
    i32 0, label %34
    i32 1, label %37
    i32 2, label %41
    i32 3, label %45
    i32 4, label %49
  ]

34:                                               ; preds = %sdslen.exit
  %35 = lshr i32 %32, 3
  %36 = zext nneg i32 %35 to i64
  br label %sdslen.exit7

37:                                               ; preds = %sdslen.exit
  %38 = getelementptr inbounds i8, ptr %28, i64 -3
  %39 = load i8, ptr %38, align 1, !tbaa !19
  %40 = zext i8 %39 to i64
  br label %sdslen.exit7

41:                                               ; preds = %sdslen.exit
  %42 = getelementptr inbounds i8, ptr %28, i64 -5
  %43 = load i16, ptr %42, align 1, !tbaa !26
  %44 = zext i16 %43 to i64
  br label %sdslen.exit7

45:                                               ; preds = %sdslen.exit
  %46 = getelementptr inbounds i8, ptr %28, i64 -9
  %47 = load i32, ptr %46, align 1, !tbaa !102
  %48 = zext i32 %47 to i64
  br label %sdslen.exit7

49:                                               ; preds = %sdslen.exit
  %50 = getelementptr inbounds i8, ptr %28, i64 -17
  %51 = load i64, ptr %50, align 1, !tbaa !5
  br label %sdslen.exit7

sdslen.exit7:                                     ; preds = %sdslen.exit, %34, %37, %41, %45, %49
  %.0.i6 = phi i64 [ %51, %49 ], [ %48, %45 ], [ %44, %41 ], [ %40, %37 ], [ %36, %34 ], [ 0, %sdslen.exit ]
  %52 = tail call i32 @ACLSetUser(ptr noundef %29, ptr noundef nonnull %28, i64 noundef %.0.i6)
  tail call void @sdsfree(ptr noundef nonnull %28) #25
  br label %56

53:                                               ; preds = %1
  %54 = load ptr, ptr @DefaultUser, align 8, !tbaa !143
  %55 = tail call i32 @ACLSetUser(ptr noundef %54, ptr noundef nonnull @.str.25, i64 noundef -1)
  br label %56

56:                                               ; preds = %53, %sdslen.exit7
  ret void
}